target datalayout = "e-m:e-p270:32:32-p271:32:32-p272:64:64-i64:64-i128:128-f80:128-n8:16:32:64-S128"
target triple = "x86_64-pc-linux-gnu"

@hf_gvcp_actioncmd_device_key = internal global i32 0, align 4
@hf_gvcp_actioncmd_group_key = internal global i32 0, align 4
@hf_gvcp_actioncmd_group_mask = internal global i32 0, align 4
@hf_gvcp_actioncmd_time_v2_0 = internal global i32 0, align 4

; Function Attrs: null_pointer_is_valid sspstrong uwtable
define internal void @dissect_action_cmd(ptr noundef %0, ptr noundef %1, ptr noundef %2, i32 noundef %3, i32 noundef %4) #0 {
  %6 = alloca ptr, align 8
  %7 = alloca ptr, align 8
  %8 = alloca ptr, align 8
  %9 = alloca i32, align 4
  %10 = alloca i32, align 4
  %11 = alloca i32, align 4
  store ptr %0, ptr %6, align 8
  store ptr %1, ptr %7, align 8
  store ptr %2, ptr %8, align 8
  store i32 %3, ptr %9, align 4
  store i32 %4, ptr %10, align 4
  %12 = load ptr, ptr %6, align 8
  %13 = icmp ne ptr %12, null
  br i1 %13, label %14, label %43

14:                                               ; preds = %5
  call void @llvm.lifetime.start.p0(i64 4, ptr %11) #7
  %15 = load i32, ptr %9, align 4
  store i32 %15, ptr %11, align 4
  %16 = load ptr, ptr %6, align 8
  %17 = load i32, ptr @hf_gvcp_actioncmd_device_key, align 4
  %18 = load ptr, ptr %7, align 8
  %19 = load i32, ptr %11, align 4
  %20 = call ptr @proto_tree_add_item(ptr noundef %16, i32 noundef %17, ptr noundef %18, i32 noundef %19, i32 noundef 4, i32 noundef 0)
  %21 = load ptr, ptr %6, align 8
  %22 = load i32, ptr @hf_gvcp_actioncmd_group_key, align 4
  %23 = load ptr, ptr %7, align 8
  %24 = load i32, ptr %11, align 4
  %25 = add i32 %24, 4
  %26 = call ptr @proto_tree_add_item(ptr noundef %21, i32 noundef %22, ptr noundef %23, i32 noundef %25, i32 noundef 4, i32 noundef 0)
  %27 = load ptr, ptr %6, align 8
  %28 = load i32, ptr @hf_gvcp_actioncmd_group_mask, align 4
  %29 = load ptr, ptr %7, align 8
  %30 = load i32, ptr %11, align 4
  %31 = add i32 %30, 8
  %32 = call ptr @proto_tree_add_item(ptr noundef %27, i32 noundef %28, ptr noundef %29, i32 noundef %31, i32 noundef 4, i32 noundef 0)
  %33 = load i32, ptr %10, align 4
  %34 = icmp ne i32 %33, 0
  br i1 %34, label %35, label %42

35:                                               ; preds = %14
  %36 = load ptr, ptr %6, align 8
  %37 = load i32, ptr @hf_gvcp_actioncmd_time_v2_0, align 4
  %38 = load ptr, ptr %7, align 8
  %39 = load i32, ptr %11, align 4
  %40 = add i32 %39, 12
  %41 = call ptr @proto_tree_add_item(ptr noundef %36, i32 noundef %37, ptr noundef %38, i32 noundef %40, i32 noundef 8, i32 noundef 0)
  br label %42

42:                                               ; preds = %35, %14
  call void @llvm.lifetime.end.p0(i64 4, ptr %11) #7
  br label %43

43:                                               ; preds = %42, %5
  ret void
}