; Function Attrs: null_pointer_is_valid sspstrong uwtable
define internal fastcc void @dissect_action_cmd(ptr noundef %0, ptr noundef %1, i32 noundef range(i32 -1, 129) %2) unnamed_addr #0 {
  %.not = icmp eq ptr %0, null
  br i1 %.not, label %14, label %4

4:                                                ; preds = %3
  %5 = load i32, ptr @hf_gvcp_actioncmd_device_key, align 4
  %6 = tail call ptr @proto_tree_add_item(ptr noundef nonnull %0, i32 noundef %5, ptr noundef %1, i32 noundef 8, i32 noundef 4, i32 noundef 0)
  %7 = load i32, ptr @hf_gvcp_actioncmd_group_key, align 4
  %8 = tail call ptr @proto_tree_add_item(ptr noundef nonnull %0, i32 noundef %7, ptr noundef %1, i32 noundef 12, i32 noundef 4, i32 noundef 0)
  %9 = load i32, ptr @hf_gvcp_actioncmd_group_mask, align 4
  %10 = tail call ptr @proto_tree_add_item(ptr noundef nonnull %0, i32 noundef %9, ptr noundef %1, i32 noundef 16, i32 noundef 4, i32 noundef 0)
  %.not14 = icmp eq i32 %2, 0
  br i1 %.not14, label %14, label %11

11:                                               ; preds = %4
  %12 = load i32, ptr @hf_gvcp_actioncmd_time_v2_0, align 4
  %13 = tail call ptr @proto_tree_add_item(ptr noundef nonnull %0, i32 noundef %12, ptr noundef %1, i32 noundef 20, i32 noundef 8, i32 noundef 0)
  br label %14

14:                                               ; preds = %4, %11, %3
  ret void
}